; Function Attrs: mustprogress nounwind uwtable
define internal fastcc void @"_ZZN4llvm9KnownBits4smaxERKS0_S2_ENK3$_0clES2_"(ptr dead_on_unwind noalias nocapture writable writeonly align 8 %0, ptr noundef nonnull align 8 dereferenceable(32) %1) unnamed_addr #0 align 2 {
  %3 = alloca %"class.llvm::APInt", align 8
  %4 = alloca %"class.llvm::APInt", align 8
  %5 = alloca %"class.llvm::APInt", align 8
  %6 = alloca %"class.llvm::APInt", align 8
  %7 = getelementptr inbounds nuw i8, ptr %1, i64 8
  %8 = load i32, ptr %7, align 8
  %9 = add i32 %8, -1
  %10 = getelementptr inbounds nuw i8, ptr %3, i64 8
  store i32 %8, ptr %10, align 8
  %11 = icmp ult i32 %8, 65
  br i1 %11, label %12, label %14

12:                                               ; preds = %2
  %13 = load i64, ptr %1, align 8
  store i64 %13, ptr %3, align 8
  br label %_ZN4llvm5APIntC2ERKS0_.exit

14:                                               ; preds = %2
  call void @_ZN4llvm5APInt12initSlowCaseERKS0_(ptr noundef nonnull align 8 dereferenceable(12) %3, ptr noundef nonnull align 8 dereferenceable(12) %1) #11
  br label %_ZN4llvm5APIntC2ERKS0_.exit

_ZN4llvm5APIntC2ERKS0_.exit:                      ; preds = %12, %14
  %15 = getelementptr inbounds nuw i8, ptr %1, i64 16
  %16 = getelementptr inbounds nuw i8, ptr %4, i64 8
  %17 = getelementptr inbounds i8, ptr %1, i64 24
  %18 = load i32, ptr %17, align 8
  store i32 %18, ptr %16, align 8
  %19 = icmp ult i32 %18, 65
  br i1 %19, label %_ZN4llvm5APIntC2ERKS0_.exit8.thread, label %_ZN4llvm5APIntC2ERKS0_.exit8

_ZN4llvm5APIntC2ERKS0_.exit8.thread:              ; preds = %_ZN4llvm5APIntC2ERKS0_.exit
  %20 = load i64, ptr %15, align 8
  store i64 %20, ptr %4, align 8
  %21 = lshr i32 %9, 6
  %22 = zext nneg i32 %21 to i64
  br label %27

_ZN4llvm5APIntC2ERKS0_.exit8:                     ; preds = %_ZN4llvm5APIntC2ERKS0_.exit
  call void @_ZN4llvm5APInt12initSlowCaseERKS0_(ptr noundef nonnull align 8 dereferenceable(12) %4, ptr noundef nonnull align 8 dereferenceable(12) %15) #11
  %.pre = load i32, ptr %17, align 8
  %.pre2 = load ptr, ptr %15, align 8
  %.pre.fr = freeze i32 %.pre
  %23 = icmp ult i32 %.pre.fr, 65
  %24 = lshr i32 %9, 6
  %25 = zext nneg i32 %24 to i64
  %26 = getelementptr inbounds i64, ptr %.pre2, i64 %25
  %spec.select = select i1 %23, ptr %15, ptr %26
  br label %27

27:                                               ; preds = %_ZN4llvm5APIntC2ERKS0_.exit8, %_ZN4llvm5APIntC2ERKS0_.exit8.thread
  %28 = phi i64 [ %22, %_ZN4llvm5APIntC2ERKS0_.exit8.thread ], [ %25, %_ZN4llvm5APIntC2ERKS0_.exit8 ]
  %29 = phi ptr [ %15, %_ZN4llvm5APIntC2ERKS0_.exit8.thread ], [ %spec.select, %_ZN4llvm5APIntC2ERKS0_.exit8 ]
  %.pn.in = and i32 %9, 63
  %.pn = zext nneg i32 %.pn.in to i64
  %30 = shl nuw i64 1, %.pn
  %31 = load i64, ptr %29, align 8
  %32 = and i64 %31, %30
  %.not = icmp eq i64 %32, 0
  br i1 %.not, label %40, label %33

33:                                               ; preds = %27
  %34 = load i32, ptr %10, align 8
  %35 = icmp ult i32 %34, 65
  %36 = load ptr, ptr %3, align 8
  %37 = getelementptr inbounds i64, ptr %36, i64 %28
  %.sink.i.i = select i1 %35, ptr %3, ptr %37
  %38 = load i64, ptr %.sink.i.i, align 8
  %39 = or i64 %38, %30
  store i64 %39, ptr %.sink.i.i, align 8
  br label %_ZN4llvm5APInt9setBitValEjb.exit

40:                                               ; preds = %27
  %41 = xor i64 %30, -1
  %42 = load i32, ptr %10, align 8
  %43 = icmp ult i32 %42, 65
  %44 = load ptr, ptr %3, align 8
  %45 = getelementptr inbounds i64, ptr %44, i64 %28
  %.sink.i3.i = select i1 %43, ptr %3, ptr %45
  %46 = load i64, ptr %.sink.i3.i, align 8
  %47 = and i64 %46, %41
  store i64 %47, ptr %.sink.i3.i, align 8
  br label %_ZN4llvm5APInt9setBitValEjb.exit

_ZN4llvm5APInt9setBitValEjb.exit:                 ; preds = %33, %40
  %48 = load i32, ptr %7, align 8
  %49 = icmp ult i32 %48, 65
  %50 = load ptr, ptr %1, align 8
  %51 = getelementptr inbounds i64, ptr %50, i64 %28
  %.in.i.i9 = select i1 %49, ptr %1, ptr %51
  %52 = load i64, ptr %.in.i.i9, align 8
  %53 = and i64 %52, %30
  %.not1 = icmp eq i64 %53, 0
  br i1 %.not1, label %61, label %54

54:                                               ; preds = %_ZN4llvm5APInt9setBitValEjb.exit
  %55 = load i32, ptr %16, align 8
  %56 = icmp ult i32 %55, 65
  %57 = load ptr, ptr %4, align 8
  %58 = getelementptr inbounds i64, ptr %57, i64 %28
  %.sink.i.i11 = select i1 %56, ptr %4, ptr %58
  %59 = load i64, ptr %.sink.i.i11, align 8
  %60 = or i64 %59, %30
  store i64 %60, ptr %.sink.i.i11, align 8
  br label %_ZN4llvm5APInt9setBitValEjb.exit12

61:                                               ; preds = %_ZN4llvm5APInt9setBitValEjb.exit
  %62 = xor i64 %30, -1
  %63 = load i32, ptr %16, align 8
  %64 = icmp ult i32 %63, 65
  %65 = load ptr, ptr %4, align 8
  %66 = getelementptr inbounds i64, ptr %65, i64 %28
  %.sink.i3.i10 = select i1 %64, ptr %4, ptr %66
  %67 = load i64, ptr %.sink.i3.i10, align 8
  %68 = and i64 %67, %62
  store i64 %68, ptr %.sink.i3.i10, align 8
  br label %_ZN4llvm5APInt9setBitValEjb.exit12

_ZN4llvm5APInt9setBitValEjb.exit12:               ; preds = %54, %61
  %69 = getelementptr inbounds nuw i8, ptr %5, i64 8
  %70 = load i32, ptr %10, align 8
  store i32 %70, ptr %69, align 8
  %71 = icmp ult i32 %70, 65
  br i1 %71, label %72, label %74

72:                                               ; preds = %_ZN4llvm5APInt9setBitValEjb.exit12
  %73 = load i64, ptr %3, align 8
  store i64 %73, ptr %5, align 8
  br label %_ZN4llvm5APIntC2ERKS0_.exit13

74:                                               ; preds = %_ZN4llvm5APInt9setBitValEjb.exit12
  call void @_ZN4llvm5APInt12initSlowCaseERKS0_(ptr noundef nonnull align 8 dereferenceable(12) %5, ptr noundef nonnull align 8 dereferenceable(12) %3) #11
  br label %_ZN4llvm5APIntC2ERKS0_.exit13

_ZN4llvm5APIntC2ERKS0_.exit13:                    ; preds = %72, %74
  %75 = getelementptr inbounds nuw i8, ptr %6, i64 8
  %76 = load i32, ptr %16, align 8
  store i32 %76, ptr %75, align 8
  %77 = icmp ult i32 %76, 65
  br i1 %77, label %78, label %80

78:                                               ; preds = %_ZN4llvm5APIntC2ERKS0_.exit13
  %79 = load i64, ptr %4, align 8
  store i64 %79, ptr %6, align 8
  br label %_ZN4llvm5APIntD2Ev.exit15

80:                                               ; preds = %_ZN4llvm5APIntC2ERKS0_.exit13
  call void @_ZN4llvm5APInt12initSlowCaseERKS0_(ptr noundef nonnull align 8 dereferenceable(12) %6, ptr noundef nonnull align 8 dereferenceable(12) %4) #11
  %.pre3 = load i32, ptr %75, align 8
  %.pre4 = load i64, ptr %6, align 8
  br label %_ZN4llvm5APIntD2Ev.exit15

_ZN4llvm5APIntD2Ev.exit15:                        ; preds = %78, %80
  %81 = phi i64 [ %.pre4, %80 ], [ %79, %78 ]
  %82 = phi i32 [ %.pre3, %80 ], [ %76, %78 ]
  %83 = getelementptr inbounds nuw i8, ptr %0, i64 8
  %84 = load i32, ptr %69, align 8
  store i32 %84, ptr %83, align 8
  %85 = load i64, ptr %5, align 8
  store i64 %85, ptr %0, align 8
  store i32 0, ptr %69, align 8
  %86 = getelementptr inbounds nuw i8, ptr %0, i64 16
  %87 = getelementptr inbounds i8, ptr %0, i64 24
  store i32 %82, ptr %87, align 8
  store i64 %81, ptr %86, align 8
  store i32 0, ptr %75, align 8
  %88 = load i32, ptr %16, align 8
  %89 = icmp ugt i32 %88, 64
  br i1 %89, label %90, label %_ZN4llvm5APIntD2Ev.exit16

90:                                               ; preds = %_ZN4llvm5APIntD2Ev.exit15
  %91 = load ptr, ptr %4, align 8
  %92 = icmp eq ptr %91, null
  br i1 %92, label %_ZN4llvm5APIntD2Ev.exit16, label %93

93:                                               ; preds = %90
  call void @_ZdaPv(ptr noundef nonnull %91) #12
  br label %_ZN4llvm5APIntD2Ev.exit16

_ZN4llvm5APIntD2Ev.exit16:                        ; preds = %_ZN4llvm5APIntD2Ev.exit15, %90, %93
  %94 = load i32, ptr %10, align 8
  %95 = icmp ugt i32 %94, 64
  br i1 %95, label %96, label %_ZN4llvm5APIntD2Ev.exit17

96:                                               ; preds = %_ZN4llvm5APIntD2Ev.exit16
  %97 = load ptr, ptr %3, align 8
  %98 = icmp eq ptr %97, null
  br i1 %98, label %_ZN4llvm5APIntD2Ev.exit17, label %99

99:                                               ; preds = %96
  call void @_ZdaPv(ptr noundef nonnull %97) #12
  br label %_ZN4llvm5APIntD2Ev.exit17

_ZN4llvm5APIntD2Ev.exit17:                        ; preds = %_ZN4llvm5APIntD2Ev.exit16, %96, %99
  ret void
}